; Function Attrs: mustprogress nounwind uwtable
define internal fastcc void @"_ZZN5clang14TextNodeDumper31VisitConstructorUsingShadowDeclEPKNS_26ConstructorUsingShadowDeclEENK3$_1clEv"(ptr nocapture noundef nonnull readonly align 8 dereferenceable(16) %0) unnamed_addr #0 align 2 {
  %2 = load ptr, ptr %0, align 8
  %3 = getelementptr inbounds nuw i8, ptr %2, i64 1096
  %4 = load ptr, ptr %3, align 8
  %5 = getelementptr inbounds nuw i8, ptr %4, i64 24
  %6 = load ptr, ptr %5, align 8
  %7 = getelementptr inbounds nuw i8, ptr %4, i64 32
  %8 = load ptr, ptr %7, align 8
  %9 = ptrtoint ptr %6 to i64
  %10 = ptrtoint ptr %8 to i64
  %11 = sub i64 %9, %10
  %12 = icmp ult i64 %11, 10
  br i1 %12, label %13, label %15

13:                                               ; preds = %1
  %14 = tail call noundef nonnull align 8 dereferenceable(48) ptr @_ZN4llvm11raw_ostream5writeEPKcm(ptr noundef nonnull align 8 dereferenceable(48) %4, ptr noundef nonnull @.str.1196, i64 noundef 10) #18
  br label %_ZN4llvm11raw_ostreamlsEPKc.exit

15:                                               ; preds = %1
  tail call void @llvm.memcpy.p0.p0.i64(ptr noundef nonnull align 1 dereferenceable(10) %8, ptr noundef nonnull align 1 dereferenceable(10) @.str.1196, i64 10, i1 false)
  %16 = load ptr, ptr %7, align 8
  %17 = getelementptr inbounds i8, ptr %16, i64 10
  store ptr %17, ptr %7, align 8
  br label %_ZN4llvm11raw_ostreamlsEPKc.exit

_ZN4llvm11raw_ostreamlsEPKc.exit:                 ; preds = %13, %15
  %18 = getelementptr inbounds nuw i8, ptr %0, i64 8
  %19 = load ptr, ptr %18, align 8
  %20 = tail call noundef ptr @_ZNK5clang26ConstructorUsingShadowDecl21getNominatedBaseClassEv(ptr noundef nonnull align 8 dereferenceable(104) %19) #18
  tail call void @_ZN5clang14TextNodeDumper15dumpBareDeclRefEPKNS_4DeclE(ptr noundef nonnull align 8 dereferenceable(1168) %2, ptr noundef %20)
  %21 = load ptr, ptr %3, align 8
  %22 = getelementptr inbounds nuw i8, ptr %21, i64 32
  %23 = load ptr, ptr %22, align 8
  %24 = getelementptr inbounds nuw i8, ptr %21, i64 24
  %25 = load ptr, ptr %24, align 8
  %.not.i = icmp ult ptr %23, %25
  br i1 %.not.i, label %28, label %26

26:                                               ; preds = %_ZN4llvm11raw_ostreamlsEPKc.exit
  %27 = tail call noundef nonnull align 8 dereferenceable(48) ptr @_ZN4llvm11raw_ostream5writeEh(ptr noundef nonnull align 8 dereferenceable(48) %21, i8 noundef zeroext 32) #18
  br label %_ZN4llvm11raw_ostreamlsEc.exit

28:                                               ; preds = %_ZN4llvm11raw_ostreamlsEPKc.exit
  %29 = getelementptr inbounds i8, ptr %23, i64 1
  store ptr %29, ptr %22, align 8
  store i8 32, ptr %23, align 1
  br label %_ZN4llvm11raw_ostreamlsEc.exit

_ZN4llvm11raw_ostreamlsEc.exit:                   ; preds = %26, %28
  %30 = load ptr, ptr %18, align 8
  %31 = getelementptr inbounds nuw i8, ptr %30, i64 80
  %32 = load ptr, ptr %31, align 8
  tail call void @_ZN5clang14TextNodeDumper15dumpBareDeclRefEPKNS_4DeclE(ptr noundef nonnull align 8 dereferenceable(1168) %2, ptr noundef %32)
  ret void
}